(lp0
cnumpy.core.multiarray
scalar
p1
(cnumpy
dtype
p2
(S'f8'
p3
I0
I1
tp4
Rp5
(I3
S'<'
p6
NNNI-1
I-1
I0
tp7
bS'\xfe\x93@:\x1fg4?'
p8
tp9
Rp10
aI19
aI100
a(lp11
F0.05281286371730987
aF1.076720164826052e-06
aa.