(lp0
cnumpy.core.multiarray
scalar
p1
(cnumpy
dtype
p2
(S'f8'
p3
I0
I1
tp4
Rp5
(I3
S'<'
p6
NNNI-1
I-1
I0
tp7
bS'\x80\xe7#\xc9\x057\xa5?'
p8
tp9
Rp10
aI28
aI100
a(lp11
F0.5320923215522981
aF1.1834849552905342e-10
aa.